target datalayout = "e-m:e-p270:32:32-p271:32:32-p272:64:64-i64:64-i128:128-f80:128-n8:16:32:64-S128"
target triple = "x86_64-pc-linux-gnu"

%struct._packet_info = type { ptr, ptr, i32, i32, %struct.nstime_t, %struct.nstime_t, %struct.nstime_t, i32, ptr, ptr, ptr, ptr, %struct._address, %struct._address, %struct._address, %struct._address, %struct._address, %struct._address, i32, ptr, i32, %struct.anon, i32, i32, i32, i32, ptr, i32, ptr, ptr, i16, i16, i32, i32, i16, i32, i32, ptr, ptr, ptr, i8, i8, i16, i16, i16, i32, i16, i16, ptr, ptr, ptr, ptr, ptr, i32 }
%struct.nstime_t = type { i64, i32 }
%struct._address = type { i32, i32, ptr, ptr }
%struct.anon = type { i8, [3 x i8] }
%struct.tcpheader = type { i32, i32, i32, i32, i32, i32, i32, i16, i16, i8, i32, i16, i32, %struct._address, %struct._address, i8, [4 x i32], [4 x i32], ptr }
%struct._seq_analysis_item = type { i32, %struct._address, i16, %struct._address, i16, ptr, ptr, ptr, i16, i32, i32, i32, i32, i32, i32, i16, i32, ptr }
%struct._seq_analysis_info = type { ptr, i32, i32, ptr, ptr, [40 x %struct._address], i32 }

@.str.977 = private unnamed_addr constant [13 x i8] c"%s - Len: %u\00", align 1
@.str.978 = private unnamed_addr constant [18 x i8] c"Seq = %u Ack = %u\00", align 1
@.str.979 = private unnamed_addr constant [9 x i8] c"Seq = %u\00", align 1

; Function Attrs: nounwind uwtable
define internal i32 @tcp_seq_analysis_packet(ptr noundef %0, ptr noundef %1, ptr noundef %2, ptr noundef %3, i32 noundef %4) #0 {
  %6 = alloca i32, align 4
  %7 = alloca ptr, align 8
  %8 = alloca ptr, align 8
  %9 = alloca ptr, align 8
  %10 = alloca ptr, align 8
  %11 = alloca i32, align 4
  %12 = alloca ptr, align 8
  %13 = alloca ptr, align 8
  %14 = alloca ptr, align 8
  %15 = alloca ptr, align 8
  store ptr %0, ptr %7, align 8
  store ptr %1, ptr %8, align 8
  store ptr %2, ptr %9, align 8
  store ptr %3, ptr %10, align 8
  store i32 %4, ptr %11, align 4
  %16 = load ptr, ptr %7, align 8
  store ptr %16, ptr %12, align 8
  %17 = load ptr, ptr %10, align 8
  store ptr %17, ptr %13, align 8
  %18 = load ptr, ptr %8, align 8
  %19 = load ptr, ptr %12, align 8
  %20 = call ptr @sequence_analysis_create_sai_with_addresses(ptr noundef %18, ptr noundef %19)
  store ptr %20, ptr %15, align 8
  %21 = load ptr, ptr %15, align 8
  %22 = icmp ne ptr %21, null
  br i1 %22, label %24, label %23

23:                                               ; preds = %5
  store i32 0, ptr %6, align 4
  br label %106

24:                                               ; preds = %5
  %25 = load ptr, ptr %8, align 8
  %26 = getelementptr inbounds %struct._packet_info, ptr %25, i32 0, i32 3
  %27 = load i32, ptr %26, align 4
  %28 = load ptr, ptr %15, align 8
  %29 = getelementptr inbounds %struct._seq_analysis_item, ptr %28, i32 0, i32 0
  store i32 %27, ptr %29, align 8
  %30 = load ptr, ptr %8, align 8
  %31 = getelementptr inbounds %struct._packet_info, ptr %30, i32 0, i32 23
  %32 = load i32, ptr %31, align 4
  %33 = trunc i32 %32 to i16
  %34 = load ptr, ptr %15, align 8
  %35 = getelementptr inbounds %struct._seq_analysis_item, ptr %34, i32 0, i32 2
  store i16 %33, ptr %35, align 8
  %36 = load ptr, ptr %8, align 8
  %37 = getelementptr inbounds %struct._packet_info, ptr %36, i32 0, i32 24
  %38 = load i32, ptr %37, align 8
  %39 = trunc i32 %38 to i16
  %40 = load ptr, ptr %15, align 8
  %41 = getelementptr inbounds %struct._seq_analysis_item, ptr %40, i32 0, i32 4
  store i16 %39, ptr %41, align 8
  %42 = load ptr, ptr %13, align 8
  %43 = call ptr @tcp_flags_to_str(ptr noundef null, ptr noundef %42)
  store ptr %43, ptr %14, align 8
  %44 = load ptr, ptr %13, align 8
  %45 = getelementptr inbounds %struct.tcpheader, ptr %44, i32 0, i32 4
  %46 = load i32, ptr %45, align 8
  %47 = icmp ne i32 %46, 0
  br i1 %47, label %48, label %61

48:                                               ; preds = %24
  %49 = load ptr, ptr %13, align 8
  %50 = getelementptr inbounds %struct.tcpheader, ptr %49, i32 0, i32 5
  %51 = load i32, ptr %50, align 4
  %52 = icmp ne i32 %51, 0
  br i1 %52, label %53, label %61

53:                                               ; preds = %48
  %54 = load ptr, ptr %14, align 8
  %55 = load ptr, ptr %13, align 8
  %56 = getelementptr inbounds %struct.tcpheader, ptr %55, i32 0, i32 5
  %57 = load i32, ptr %56, align 4
  %58 = call noalias ptr (ptr, ptr, ...) @wmem_strdup_printf(ptr noundef null, ptr noundef @.str.977, ptr noundef %54, i32 noundef %57)
  %59 = load ptr, ptr %15, align 8
  %60 = getelementptr inbounds %struct._seq_analysis_item, ptr %59, i32 0, i32 5
  store ptr %58, ptr %60, align 8
  br label %66

61:                                               ; preds = %48, %24
  %62 = load ptr, ptr %14, align 8
  %63 = call noalias ptr @g_strdup(ptr noundef %62)
  %64 = load ptr, ptr %15, align 8
  %65 = getelementptr inbounds %struct._seq_analysis_item, ptr %64, i32 0, i32 5
  store ptr %63, ptr %65, align 8
  br label %66

66:                                               ; preds = %61, %53
  %67 = load ptr, ptr %14, align 8
  call void @wmem_free(ptr noundef null, ptr noundef %67)
  %68 = load ptr, ptr %13, align 8
  %69 = getelementptr inbounds %struct.tcpheader, ptr %68, i32 0, i32 11
  %70 = load i16, ptr %69, align 8
  %71 = zext i16 %70 to i32
  %72 = and i32 %71, 16
  %73 = icmp ne i32 %72, 0
  br i1 %73, label %74, label %84

74:                                               ; preds = %66
  %75 = load ptr, ptr %13, align 8
  %76 = getelementptr inbounds %struct.tcpheader, ptr %75, i32 0, i32 1
  %77 = load i32, ptr %76, align 4
  %78 = load ptr, ptr %13, align 8
  %79 = getelementptr inbounds %struct.tcpheader, ptr %78, i32 0, i32 3
  %80 = load i32, ptr %79, align 4
  %81 = call noalias ptr (ptr, ptr, ...) @wmem_strdup_printf(ptr noundef null, ptr noundef @.str.978, i32 noundef %77, i32 noundef %80)
  %82 = load ptr, ptr %15, align 8
  %83 = getelementptr inbounds %struct._seq_analysis_item, ptr %82, i32 0, i32 7
  store ptr %81, ptr %83, align 8
  br label %91

84:                                               ; preds = %66
  %85 = load ptr, ptr %13, align 8
  %86 = getelementptr inbounds %struct.tcpheader, ptr %85, i32 0, i32 1
  %87 = load i32, ptr %86, align 4
  %88 = call noalias ptr (ptr, ptr, ...) @wmem_strdup_printf(ptr noundef null, ptr noundef @.str.979, i32 noundef %87)
  %89 = load ptr, ptr %15, align 8
  %90 = getelementptr inbounds %struct._seq_analysis_item, ptr %89, i32 0, i32 7
  store ptr %88, ptr %90, align 8
  br label %91

91:                                               ; preds = %84, %74
  %92 = load ptr, ptr %15, align 8
  %93 = getelementptr inbounds %struct._seq_analysis_item, ptr %92, i32 0, i32 15
  store i16 1, ptr %93, align 4
  %94 = load ptr, ptr %13, align 8
  %95 = getelementptr inbounds %struct.tcpheader, ptr %94, i32 0, i32 12
  %96 = load i32, ptr %95, align 4
  %97 = trunc i32 %96 to i16
  %98 = load ptr, ptr %15, align 8
  %99 = getelementptr inbounds %struct._seq_analysis_item, ptr %98, i32 0, i32 8
  store i16 %97, ptr %99, align 8
  %100 = load ptr, ptr %15, align 8
  %101 = getelementptr inbounds %struct._seq_analysis_item, ptr %100, i32 0, i32 12
  store i32 1, ptr %101, align 8
  %102 = load ptr, ptr %12, align 8
  %103 = getelementptr inbounds %struct._seq_analysis_info, ptr %102, i32 0, i32 3
  %104 = load ptr, ptr %103, align 8
  %105 = load ptr, ptr %15, align 8
  call void @g_queue_push_tail(ptr noundef %104, ptr noundef %105)
  store i32 1, ptr %6, align 4
  br label %106

106:                                              ; preds = %91, %23
  %107 = load i32, ptr %6, align 4
  ret i32 %107
}