; Function Attrs: nounwind uwtable
define internal range(i32 0, 2) i32 @tcp_seq_analysis_packet(ptr noundef %0, ptr noundef %1, ptr readnone captures(none) %2, ptr noundef readonly captures(none) %3, i32 %4) #0 {
  %6 = tail call ptr @sequence_analysis_create_sai_with_addresses(ptr noundef %1, ptr noundef %0) #20
  %.not = icmp eq ptr %6, null
  br i1 %.not, label %51, label %7

7:                                                ; preds = %5
  %8 = getelementptr inbounds nuw i8, ptr %1, i64 20
  %9 = load i32, ptr %8, align 4
  store i32 %9, ptr %6, align 8
  %10 = getelementptr inbounds nuw i8, ptr %1, i64 284
  %11 = load i32, ptr %10, align 4
  %12 = trunc i32 %11 to i16
  %13 = getelementptr inbounds nuw i8, ptr %6, i64 32
  store i16 %12, ptr %13, align 8
  %14 = getelementptr inbounds nuw i8, ptr %1, i64 288
  %15 = load i32, ptr %14, align 8
  %16 = trunc i32 %15 to i16
  %17 = getelementptr inbounds nuw i8, ptr %6, i64 64
  store i16 %16, ptr %17, align 8
  %18 = tail call fastcc ptr @tcp_flags_to_str(ptr noundef null, ptr noundef %3)
  %19 = getelementptr inbounds nuw i8, ptr %3, i64 16
  %20 = load i32, ptr %19, align 8
  %.not34 = icmp eq i32 %20, 0
  br i1 %.not34, label %26, label %21

21:                                               ; preds = %7
  %22 = getelementptr inbounds nuw i8, ptr %3, i64 20
  %23 = load i32, ptr %22, align 4
  %.not35 = icmp eq i32 %23, 0
  br i1 %.not35, label %26, label %24

24:                                               ; preds = %21
  %25 = tail call noalias ptr (ptr, ptr, ...) @wmem_strdup_printf(ptr noundef null, ptr noundef nonnull @.str.977, ptr noundef %18, i32 noundef %23) #20
  br label %28

26:                                               ; preds = %21, %7
  %27 = tail call noalias ptr @g_strdup(ptr noundef %18) #20
  br label %28

28:                                               ; preds = %26, %24
  %.sink37 = phi ptr [ %27, %26 ], [ %25, %24 ]
  %29 = getelementptr inbounds nuw i8, ptr %6, i64 72
  store ptr %.sink37, ptr %29, align 8
  tail call void @wmem_free(ptr noundef null, ptr noundef %18) #20
  %30 = getelementptr inbounds nuw i8, ptr %3, i64 40
  %31 = load i16, ptr %30, align 8
  %32 = and i16 %31, 16
  %.not36 = icmp eq i16 %32, 0
  %33 = getelementptr inbounds nuw i8, ptr %3, i64 4
  %34 = load i32, ptr %33, align 4
  br i1 %.not36, label %39, label %35

35:                                               ; preds = %28
  %36 = getelementptr inbounds nuw i8, ptr %3, i64 12
  %37 = load i32, ptr %36, align 4
  %38 = tail call noalias ptr (ptr, ptr, ...) @wmem_strdup_printf(ptr noundef null, ptr noundef nonnull @.str.978, i32 noundef %34, i32 noundef %37) #20
  br label %41

39:                                               ; preds = %28
  %40 = tail call noalias ptr (ptr, ptr, ...) @wmem_strdup_printf(ptr noundef null, ptr noundef nonnull @.str.979, i32 noundef %34) #20
  br label %41

41:                                               ; preds = %39, %35
  %.sink = phi ptr [ %40, %39 ], [ %38, %35 ]
  %42 = getelementptr inbounds nuw i8, ptr %6, i64 88
  store ptr %.sink, ptr %42, align 8
  %43 = getelementptr inbounds nuw i8, ptr %6, i64 124
  store i16 1, ptr %43, align 4
  %44 = getelementptr inbounds nuw i8, ptr %3, i64 44
  %45 = load i32, ptr %44, align 4
  %46 = trunc i32 %45 to i16
  %47 = getelementptr inbounds nuw i8, ptr %6, i64 96
  store i16 %46, ptr %47, align 8
  %48 = getelementptr inbounds nuw i8, ptr %6, i64 112
  store i32 1, ptr %48, align 8
  %49 = getelementptr inbounds nuw i8, ptr %0, i64 16
  %50 = load ptr, ptr %49, align 8
  tail call void @g_queue_push_tail(ptr noundef %50, ptr noundef nonnull %6) #20
  br label %51

51:                                               ; preds = %5, %41
  %.0 = phi i32 [ 1, %41 ], [ 0, %5 ]
  ret i32 %.0
}